target datalayout = "e-m:e-p270:32:32-p271:32:32-p272:64:64-i64:64-i128:128-f80:128-n8:16:32:64-S128"
target triple = "x86_64-pc-linux-gnu"

%"class.cv::details::Chessboard::Board" = type { ptr, %"class.std::vector.24", %"class.std::vector.29", ptr, i32, i32, float, float }
%"class.std::vector.24" = type { %"struct.std::_Vector_base.25" }
%"struct.std::_Vector_base.25" = type { %"struct.std::_Vector_base<cv::details::Chessboard::Board::Cell *, std::allocator<cv::details::Chessboard::Board::Cell *>>::_Vector_impl" }
%"struct.std::_Vector_base<cv::details::Chessboard::Board::Cell *, std::allocator<cv::details::Chessboard::Board::Cell *>>::_Vector_impl" = type { %"struct.std::_Vector_base<cv::details::Chessboard::Board::Cell *, std::allocator<cv::details::Chessboard::Board::Cell *>>::_Vector_impl_data" }
%"struct.std::_Vector_base<cv::details::Chessboard::Board::Cell *, std::allocator<cv::details::Chessboard::Board::Cell *>>::_Vector_impl_data" = type { ptr, ptr, ptr }
%"class.std::vector.29" = type { %"struct.std::_Vector_base.30" }
%"struct.std::_Vector_base.30" = type { %"struct.std::_Vector_base<cv::Point_<float> *, std::allocator<cv::Point_<float> *>>::_Vector_impl" }
%"struct.std::_Vector_base<cv::Point_<float> *, std::allocator<cv::Point_<float> *>>::_Vector_impl" = type { %"struct.std::_Vector_base<cv::Point_<float> *, std::allocator<cv::Point_<float> *>>::_Vector_impl_data" }
%"struct.std::_Vector_base<cv::Point_<float> *, std::allocator<cv::Point_<float> *>>::_Vector_impl_data" = type { ptr, ptr, ptr }

@_ZTVN2cv7details10Chessboard5BoardE = hidden unnamed_addr constant { [4 x ptr] } { [4 x ptr] [ptr null, ptr @_ZTIN2cv7details10Chessboard5BoardE, ptr @_ZN2cv7details10Chessboard5BoardD1Ev, ptr @_ZN2cv7details10Chessboard5BoardD0Ev] }, align 8

; Function Attrs: mustprogress nounwind uwtable
define linkonce_odr hidden void @_ZNSt15__new_allocatorIPN2cv6Point_IfEEEC2Ev(ptr noundef nonnull align 1 dereferenceable(1) %0) unnamed_addr #7 comdat align 2 {
  %2 = alloca ptr, align 8
  store ptr %0, ptr %2, align 8, !tbaa !627
  ret void
}

; Function Attrs: mustprogress nounwind uwtable
define linkonce_odr hidden void @_ZNSt15__new_allocatorIPN2cv7details10Chessboard5Board4CellEEC2Ev(ptr noundef nonnull align 1 dereferenceable(1) %0) unnamed_addr #7 comdat align 2 {
  %2 = alloca ptr, align 8
  store ptr %0, ptr %2, align 8, !tbaa !619
  ret void
}

; Function Attrs: mustprogress nounwind uwtable
define linkonce_odr hidden void @_ZNSt12_Vector_baseIPN2cv6Point_IfEESaIS3_EE17_Vector_impl_dataC2Ev(ptr noundef nonnull align 8 dereferenceable(24) %0) unnamed_addr #7 comdat align 2 {
  %2 = alloca ptr, align 8
  store ptr %0, ptr %2, align 8, !tbaa !923
  %3 = load ptr, ptr %2, align 8
  %4 = getelementptr inbounds nuw %"struct.std::_Vector_base<cv::Point_<float> *, std::allocator<cv::Point_<float> *>>::_Vector_impl_data", ptr %3, i32 0, i32 0
  store ptr null, ptr %4, align 8, !tbaa !263
  %5 = getelementptr inbounds nuw %"struct.std::_Vector_base<cv::Point_<float> *, std::allocator<cv::Point_<float> *>>::_Vector_impl_data", ptr %3, i32 0, i32 1
  store ptr null, ptr %5, align 8, !tbaa !264
  %6 = getelementptr inbounds nuw %"struct.std::_Vector_base<cv::Point_<float> *, std::allocator<cv::Point_<float> *>>::_Vector_impl_data", ptr %3, i32 0, i32 2
  store ptr null, ptr %6, align 8, !tbaa !332
  ret void
}

; Function Attrs: mustprogress nounwind uwtable
define linkonce_odr hidden void @_ZNSaIPN2cv6Point_IfEEEC2Ev(ptr noundef nonnull align 1 dereferenceable(1) %0) unnamed_addr #7 comdat align 2 {
  %2 = alloca ptr, align 8
  store ptr %0, ptr %2, align 8, !tbaa !625
  %3 = load ptr, ptr %2, align 8
  call void @_ZNSt15__new_allocatorIPN2cv6Point_IfEEEC2Ev(ptr noundef nonnull align 1 dereferenceable(1) %3) #3
  ret void
}

; Function Attrs: mustprogress nounwind uwtable
define linkonce_odr hidden void @_ZNSt12_Vector_baseIPN2cv7details10Chessboard5Board4CellESaIS5_EE17_Vector_impl_dataC2Ev(ptr noundef nonnull align 8 dereferenceable(24) %0) unnamed_addr #7 comdat align 2 {
  %2 = alloca ptr, align 8
  store ptr %0, ptr %2, align 8, !tbaa !925
  %3 = load ptr, ptr %2, align 8
  %4 = getelementptr inbounds nuw %"struct.std::_Vector_base<cv::details::Chessboard::Board::Cell *, std::allocator<cv::details::Chessboard::Board::Cell *>>::_Vector_impl_data", ptr %3, i32 0, i32 0
  store ptr null, ptr %4, align 8, !tbaa !265
  %5 = getelementptr inbounds nuw %"struct.std::_Vector_base<cv::details::Chessboard::Board::Cell *, std::allocator<cv::details::Chessboard::Board::Cell *>>::_Vector_impl_data", ptr %3, i32 0, i32 1
  store ptr null, ptr %5, align 8, !tbaa !266
  %6 = getelementptr inbounds nuw %"struct.std::_Vector_base<cv::details::Chessboard::Board::Cell *, std::allocator<cv::details::Chessboard::Board::Cell *>>::_Vector_impl_data", ptr %3, i32 0, i32 2
  store ptr null, ptr %6, align 8, !tbaa !330
  ret void
}

; Function Attrs: mustprogress nounwind uwtable
define linkonce_odr hidden void @_ZNSaIPN2cv7details10Chessboard5Board4CellEEC2Ev(ptr noundef nonnull align 1 dereferenceable(1) %0) unnamed_addr #7 comdat align 2 {
  %2 = alloca ptr, align 8
  store ptr %0, ptr %2, align 8, !tbaa !617
  %3 = load ptr, ptr %2, align 8
  call void @_ZNSt15__new_allocatorIPN2cv7details10Chessboard5Board4CellEEC2Ev(ptr noundef nonnull align 1 dereferenceable(1) %3) #3
  ret void
}

; Function Attrs: mustprogress nounwind uwtable
define linkonce_odr hidden void @_ZNSt12_Vector_baseIPN2cv6Point_IfEESaIS3_EE12_Vector_implC2Ev(ptr noundef nonnull align 8 dereferenceable(24) %0) unnamed_addr #7 comdat align 2 {
  %2 = alloca ptr, align 8
  store ptr %0, ptr %2, align 8, !tbaa !623
  %3 = load ptr, ptr %2, align 8
  call void @_ZNSaIPN2cv6Point_IfEEEC2Ev(ptr noundef nonnull align 1 dereferenceable(1) %3) #3
  call void @_ZNSt12_Vector_baseIPN2cv6Point_IfEESaIS3_EE17_Vector_impl_dataC2Ev(ptr noundef nonnull align 8 dereferenceable(24) %3) #3
  ret void
}

; Function Attrs: mustprogress nounwind uwtable
define linkonce_odr hidden void @_ZNSt12_Vector_baseIPN2cv7details10Chessboard5Board4CellESaIS5_EE12_Vector_implC2Ev(ptr noundef nonnull align 8 dereferenceable(24) %0) unnamed_addr #7 comdat align 2 {
  %2 = alloca ptr, align 8
  store ptr %0, ptr %2, align 8, !tbaa !615
  %3 = load ptr, ptr %2, align 8
  call void @_ZNSaIPN2cv7details10Chessboard5Board4CellEEC2Ev(ptr noundef nonnull align 1 dereferenceable(1) %3) #3
  call void @_ZNSt12_Vector_baseIPN2cv7details10Chessboard5Board4CellESaIS5_EE17_Vector_impl_dataC2Ev(ptr noundef nonnull align 8 dereferenceable(24) %3) #3
  ret void
}

; Function Attrs: mustprogress nounwind uwtable
define linkonce_odr hidden void @_ZNSt12_Vector_baseIPN2cv6Point_IfEESaIS3_EEC2Ev(ptr noundef nonnull align 8 dereferenceable(24) %0) unnamed_addr #7 comdat align 2 {
  %2 = alloca ptr, align 8
  store ptr %0, ptr %2, align 8, !tbaa !621
  %3 = load ptr, ptr %2, align 8
  %4 = getelementptr inbounds nuw %"struct.std::_Vector_base.30", ptr %3, i32 0, i32 0
  call void @_ZNSt12_Vector_baseIPN2cv6Point_IfEESaIS3_EE12_Vector_implC2Ev(ptr noundef nonnull align 8 dereferenceable(24) %4) #3
  ret void
}

; Function Attrs: mustprogress nounwind uwtable
define linkonce_odr hidden void @_ZNSt12_Vector_baseIPN2cv7details10Chessboard5Board4CellESaIS5_EEC2Ev(ptr noundef nonnull align 8 dereferenceable(24) %0) unnamed_addr #7 comdat align 2 {
  %2 = alloca ptr, align 8
  store ptr %0, ptr %2, align 8, !tbaa !613
  %3 = load ptr, ptr %2, align 8
  %4 = getelementptr inbounds nuw %"struct.std::_Vector_base.25", ptr %3, i32 0, i32 0
  call void @_ZNSt12_Vector_baseIPN2cv7details10Chessboard5Board4CellESaIS5_EE12_Vector_implC2Ev(ptr noundef nonnull align 8 dereferenceable(24) %4) #3
  ret void
}

; Function Attrs: mustprogress nounwind uwtable
define linkonce_odr hidden void @_ZNSt6vectorIPN2cv6Point_IfEESaIS3_EEC2Ev(ptr noundef nonnull align 8 dereferenceable(24) %0) unnamed_addr #7 comdat align 2 {
  %2 = alloca ptr, align 8
  store ptr %0, ptr %2, align 8, !tbaa !256
  %3 = load ptr, ptr %2, align 8
  call void @_ZNSt12_Vector_baseIPN2cv6Point_IfEESaIS3_EEC2Ev(ptr noundef nonnull align 8 dereferenceable(24) %3) #3
  ret void
}

; Function Attrs: mustprogress nounwind uwtable
define linkonce_odr hidden void @_ZNSt6vectorIPN2cv7details10Chessboard5Board4CellESaIS5_EEC2Ev(ptr noundef nonnull align 8 dereferenceable(24) %0) unnamed_addr #7 comdat align 2 {
  %2 = alloca ptr, align 8
  store ptr %0, ptr %2, align 8, !tbaa !254
  %3 = load ptr, ptr %2, align 8
  call void @_ZNSt12_Vector_baseIPN2cv7details10Chessboard5Board4CellESaIS5_EEC2Ev(ptr noundef nonnull align 8 dereferenceable(24) %3) #3
  ret void
}

; Function Attrs: mustprogress nounwind uwtable
define hidden void @_ZN2cv7details10Chessboard5BoardC2Eff(ptr noundef nonnull align 8 dereferenceable(80) %0, float noundef %1, float noundef %2) unnamed_addr #7 align 2 {
  %4 = alloca ptr, align 8
  %5 = alloca float, align 4
  %6 = alloca float, align 4
  store ptr %0, ptr %4, align 8, !tbaa !236
  store float %1, ptr %5, align 4, !tbaa !7
  store float %2, ptr %6, align 4, !tbaa !7
  %7 = load ptr, ptr %4, align 8
  store ptr getelementptr inbounds inrange(-16, 16) ({ [4 x ptr] }, ptr @_ZTVN2cv7details10Chessboard5BoardE, i32 0, i32 0, i32 2), ptr %7, align 8, !tbaa !16
  %8 = getelementptr inbounds nuw %"class.cv::details::Chessboard::Board", ptr %7, i32 0, i32 1
  call void @_ZNSt6vectorIPN2cv7details10Chessboard5Board4CellESaIS5_EEC2Ev(ptr noundef nonnull align 8 dereferenceable(24) %8) #3
  %9 = getelementptr inbounds nuw %"class.cv::details::Chessboard::Board", ptr %7, i32 0, i32 2
  call void @_ZNSt6vectorIPN2cv6Point_IfEESaIS3_EEC2Ev(ptr noundef nonnull align 8 dereferenceable(24) %9) #3
  %10 = getelementptr inbounds nuw %"class.cv::details::Chessboard::Board", ptr %7, i32 0, i32 3
  store ptr null, ptr %10, align 8, !tbaa !238
  %11 = getelementptr inbounds nuw %"class.cv::details::Chessboard::Board", ptr %7, i32 0, i32 4
  store i32 0, ptr %11, align 8, !tbaa !250
  %12 = getelementptr inbounds nuw %"class.cv::details::Chessboard::Board", ptr %7, i32 0, i32 5
  store i32 0, ptr %12, align 4, !tbaa !251
  %13 = getelementptr inbounds nuw %"class.cv::details::Chessboard::Board", ptr %7, i32 0, i32 6
  %14 = load float, ptr %5, align 4, !tbaa !7
  store float %14, ptr %13, align 8, !tbaa !252
  %15 = getelementptr inbounds nuw %"class.cv::details::Chessboard::Board", ptr %7, i32 0, i32 7
  %16 = load float, ptr %6, align 4, !tbaa !7
  store float %16, ptr %15, align 4, !tbaa !253
  ret void
}