; Function Attrs: mustprogress nofree norecurse nosync nounwind willreturn memory(argmem: write) uwtable
define hidden void @_ZN2cv7details10Chessboard5BoardC2Eff(ptr noundef nonnull writeonly align 8 captures(none) dereferenceable(80) initializes((0, 80)) %0, float noundef %1, float noundef %2) unnamed_addr #14 align 2 {
  store ptr getelementptr inbounds nuw inrange(-16, 16) (i8, ptr @_ZTVN2cv7details10Chessboard5BoardE, i64 16), ptr %0, align 8, !tbaa !3
  %4 = getelementptr inbounds nuw i8, ptr %0, i64 8
  %5 = getelementptr inbounds nuw i8, ptr %0, i64 72
  tail call void @llvm.memset.p0.i64(ptr noundef nonnull align 8 dereferenceable(64) %4, i8 0, i64 64, i1 false)
  store float %1, ptr %5, align 8, !tbaa !196
  %6 = getelementptr inbounds nuw i8, ptr %0, i64 76
  store float %2, ptr %6, align 4, !tbaa !209
  ret void
}